# SymbolsHelper-Confirmed: 6.2.1 amd64
libQt6SerialBus.so.6 libqt6serialbus6 #MINVER#
* Build-Depends-Package: libqt6serialbus6-dev
 _ZN12QModbusReply11qt_metacallEN11QMetaObject4CallEiPPv@Base 6.2.1
 _ZN12QModbusReply11qt_metacastEPKc@Base 6.2.1
 _ZN12QModbusReply11setFinishedEb@Base 6.2.1
 _ZN12QModbusReply12setRawResultERK15QModbusResponse@Base 6.2.1
 _ZN12QModbusReply13errorOccurredEN13QModbusDevice5ErrorE@Base 6.2.1
 _ZN12QModbusReply16staticMetaObjectE@Base 6.2.1
 _ZN12QModbusReply20addIntermediateErrorEN13QModbusDevice17IntermediateErrorE@Base 6.2.1
 _ZN12QModbusReply25intermediateErrorOccurredEN13QModbusDevice17IntermediateErrorE@Base 6.2.1
 _ZN12QModbusReply8finishedEv@Base 6.2.1
 _ZN12QModbusReply8setErrorEN13QModbusDevice5ErrorERK7QString@Base 6.2.1
 _ZN12QModbusReply9setResultERK15QModbusDataUnit@Base 6.2.1
 _ZN12QModbusReplyC1ENS_9ReplyTypeEiP7QObject@Base 6.2.1
 _ZN12QModbusReplyC2ENS_9ReplyTypeEiP7QObject@Base 6.2.1
 _ZN13QCanBusDevice10clearErrorEv@Base 6.2.1
 _ZN13QCanBusDevice11qt_metacallEN11QMetaObject4CallEiPPv@Base 6.2.1
 _ZN13QCanBusDevice11qt_metacastEPKc@Base 6.2.1
 _ZN13QCanBusDevice12stateChangedENS_17CanBusDeviceStateE@Base 6.2.1
 _ZN13QCanBusDevice13connectDeviceEv@Base 6.2.1
 _ZN13QCanBusDevice13errorOccurredENS_11CanBusErrorE@Base 6.2.1
 _ZN13QCanBusDevice13framesWrittenEx@Base 6.2.1
 _ZN13QCanBusDevice13readAllFramesEv@Base 6.2.1
 _ZN13QCanBusDevice14framesReceivedEv@Base 6.2.1
 _ZN13QCanBusDevice15resetControllerEv@Base 6.2.1
 _ZN13QCanBusDevice16createDeviceInfoERK7QStringS2_S2_S2_S2_ibb@Base 6.2.1
 _ZN13QCanBusDevice16createDeviceInfoERK7QStringS2_bb@Base 6.2.1
 _ZN13QCanBusDevice16disconnectDeviceEv@Base 6.2.1
 _ZN13QCanBusDevice16staticMetaObjectE@Base 6.2.1
 _ZN13QCanBusDevice20dequeueOutgoingFrameEv@Base 6.2.1
 _ZN13QCanBusDevice20enqueueOutgoingFrameERK12QCanBusFrame@Base 6.2.1
 _ZN13QCanBusDevice20waitForFramesWrittenEi@Base 6.2.1
 _ZN13QCanBusDevice21enqueueReceivedFramesERK5QListI12QCanBusFrameE@Base 6.2.1
 _ZN13QCanBusDevice21waitForFramesReceivedEi@Base 6.2.1
 _ZN13QCanBusDevice25setConfigurationParameterENS_16ConfigurationKeyERK8QVariant@Base 6.2.1
 _ZN13QCanBusDevice5clearE6QFlagsINS_9DirectionEE@Base 6.2.1
 _ZN13QCanBusDevice8setErrorERK7QStringNS_11CanBusErrorE@Base 6.2.1
 _ZN13QCanBusDevice8setStateENS_17CanBusDeviceStateE@Base 6.2.1
 _ZN13QCanBusDevice9busStatusEv@Base 6.2.1
 _ZN13QCanBusDevice9readFrameEv@Base 6.2.1
 _ZN13QCanBusDeviceC1EP7QObject@Base 6.2.1
 _ZN13QCanBusDeviceC2EP7QObject@Base 6.2.1
 _ZN13QModbusClient10setTimeoutEi@Base 6.2.1
 _ZN13QModbusClient11qt_metacallEN11QMetaObject4CallEiPPv@Base 6.2.1
 _ZN13QModbusClient11qt_metacastEPKc@Base 6.2.1
 _ZN13QModbusClient14sendRawRequestERK14QModbusRequesti@Base 6.2.1
 _ZN13QModbusClient14timeoutChangedEi@Base 6.2.1
 _ZN13QModbusClient15processResponseERK15QModbusResponseP15QModbusDataUnit@Base 6.2.1
 _ZN13QModbusClient15sendReadRequestERK15QModbusDataUniti@Base 6.2.1
 _ZN13QModbusClient16sendWriteRequestERK15QModbusDataUniti@Base 6.2.1
 _ZN13QModbusClient16staticMetaObjectE@Base 6.2.1
 _ZN13QModbusClient18setNumberOfRetriesEi@Base 6.2.1
 _ZN13QModbusClient20sendReadWriteRequestERK15QModbusDataUnitS2_i@Base 6.2.1
 _ZN13QModbusClient22processPrivateResponseERK15QModbusResponseP15QModbusDataUnit@Base 6.2.1
 _ZN13QModbusClientC1EP7QObject@Base 6.2.1
 _ZN13QModbusClientC1ER20QModbusClientPrivateP7QObject@Base 6.2.1
 _ZN13QModbusClientC2EP7QObject@Base 6.2.1
 _ZN13QModbusClientC2ER20QModbusClientPrivateP7QObject@Base 6.2.1
 _ZN13QModbusClientD0Ev@Base 6.2.1
 _ZN13QModbusClientD1Ev@Base 6.2.1
 _ZN13QModbusClientD2Ev@Base 6.2.1
 _ZN13QModbusDevice11qt_metacallEN11QMetaObject4CallEiPPv@Base 6.2.1
 _ZN13QModbusDevice11qt_metacastEPKc@Base 6.2.1
 _ZN13QModbusDevice12stateChangedENS_5StateE@Base 6.2.1
 _ZN13QModbusDevice13connectDeviceEv@Base 6.2.1
 _ZN13QModbusDevice13errorOccurredENS_5ErrorE@Base 6.2.1
 _ZN13QModbusDevice16disconnectDeviceEv@Base 6.2.1
 _ZN13QModbusDevice16staticMetaObjectE@Base 6.2.1
 _ZN13QModbusDevice22setConnectionParameterENS_19ConnectionParameterERK8QVariant@Base 6.2.1
 _ZN13QModbusDevice8setErrorERK7QStringNS_5ErrorE@Base 6.2.1
 _ZN13QModbusDevice8setStateENS_5StateE@Base 6.2.1
 _ZN13QModbusDeviceC1EP7QObject@Base 6.2.1
 _ZN13QModbusDeviceC1ER20QModbusDevicePrivateP7QObject@Base 6.2.1
 _ZN13QModbusDeviceC2EP7QObject@Base 6.2.1
 _ZN13QModbusDeviceC2ER20QModbusDevicePrivateP7QObject@Base 6.2.1
 _ZN13QModbusDeviceD0Ev@Base 6.2.1
 _ZN13QModbusDeviceD1Ev@Base 6.2.1
 _ZN13QModbusDeviceD2Ev@Base 6.2.1
 _ZN13QModbusServer11dataWrittenEN15QModbusDataUnit12RegisterTypeEii@Base 6.2.1
 _ZN13QModbusServer11qt_metacallEN11QMetaObject4CallEiPPv@Base 6.2.1
 _ZN13QModbusServer11qt_metacastEPKc@Base 6.2.1
 _ZN13QModbusServer14processRequestERK10QModbusPdu@Base 6.2.1
 _ZN13QModbusServer16setServerAddressEi@Base 6.2.1
 _ZN13QModbusServer16staticMetaObjectE@Base 6.2.1
 _ZN13QModbusServer21processPrivateRequestERK10QModbusPdu@Base 6.2.1
 _ZN13QModbusServer6setMapERK4QMapIN15QModbusDataUnit12RegisterTypeES1_E@Base 6.2.1
 _ZN13QModbusServer7setDataEN15QModbusDataUnit12RegisterTypeEtt@Base 6.2.1
 _ZN13QModbusServer7setDataERK15QModbusDataUnit@Base 6.2.1
 _ZN13QModbusServer8setValueEiRK8QVariant@Base 6.2.1
 _ZN13QModbusServer9writeDataERK15QModbusDataUnit@Base 6.2.1
 _ZN13QModbusServerC1EP7QObject@Base 6.2.1
 _ZN13QModbusServerC1ER20QModbusServerPrivateP7QObject@Base 6.2.1
 _ZN13QModbusServerC2EP7QObject@Base 6.2.1
 _ZN13QModbusServerC2ER20QModbusServerPrivateP7QObject@Base 6.2.1
 _ZN13QModbusServerD0Ev@Base 6.2.1
 _ZN13QModbusServerD1Ev@Base 6.2.1
 _ZN13QModbusServerD2Ev@Base 6.2.1
 _ZN14QCanBusFactoryD0Ev@Base 6.2.1
 _ZN14QCanBusFactoryD1Ev@Base 6.2.1
 _ZN14QCanBusFactoryD2Ev@Base 6.2.1
 _ZN14QModbusRequest15minimumDataSizeERKS_@Base 6.2.1
 _ZN14QModbusRequest17calculateDataSizeERKS_@Base 6.2.1
 _ZN14QModbusRequest26registerDataSizeCalculatorEN10QModbusPdu12FunctionCodeEPFiRKS_E@Base 6.2.1
 _ZN15QModbusResponse15minimumDataSizeERKS_@Base 6.2.1
 _ZN15QModbusResponse17calculateDataSizeERKS_@Base 6.2.1
 _ZN15QModbusResponse26registerDataSizeCalculatorEN10QModbusPdu12FunctionCodeEPFiRKS_E@Base 6.2.1
 _ZN16QModbusTcpClient11qt_metacallEN11QMetaObject4CallEiPPv@Base 6.2.1
 _ZN16QModbusTcpClient11qt_metacastEPKc@Base 6.2.1
 _ZN16QModbusTcpClient16staticMetaObjectE@Base 6.2.1
 _ZN16QModbusTcpClient4openEv@Base 6.2.1
 _ZN16QModbusTcpClient5closeEv@Base 6.2.1
 _ZN16QModbusTcpClientC1EP7QObject@Base 6.2.1
 _ZN16QModbusTcpClientC1ER23QModbusTcpClientPrivateP7QObject@Base 6.2.1
 _ZN16QModbusTcpClientC2EP7QObject@Base 6.2.1
 _ZN16QModbusTcpClientC2ER23QModbusTcpClientPrivateP7QObject@Base 6.2.1
 _ZN16QModbusTcpClientD0Ev@Base 6.2.1
 _ZN16QModbusTcpClientD1Ev@Base 6.2.1
 _ZN16QModbusTcpClientD2Ev@Base 6.2.1
 _ZN16QModbusTcpServer11qt_metacallEN11QMetaObject4CallEiPPv@Base 6.2.1
 _ZN16QModbusTcpServer11qt_metacastEPKc@Base 6.2.1
 _ZN16QModbusTcpServer14processRequestERK10QModbusPdu@Base 6.2.1
 _ZN16QModbusTcpServer16staticMetaObjectE@Base 6.2.1
 _ZN16QModbusTcpServer24modbusClientDisconnectedEP10QTcpSocket@Base 6.2.1
 _ZN16QModbusTcpServer25installConnectionObserverEP28QModbusTcpConnectionObserver@Base 6.2.1
 _ZN16QModbusTcpServer4openEv@Base 6.2.1
 _ZN16QModbusTcpServer5closeEv@Base 6.2.1
 _ZN16QModbusTcpServerC1EP7QObject@Base 6.2.1
 _ZN16QModbusTcpServerC1ER23QModbusTcpServerPrivateP7QObject@Base 6.2.1
 _ZN16QModbusTcpServerC2EP7QObject@Base 6.2.1
 _ZN16QModbusTcpServerC2ER23QModbusTcpServerPrivateP7QObject@Base 6.2.1
 _ZN16QModbusTcpServerD0Ev@Base 6.2.1
 _ZN16QModbusTcpServerD1Ev@Base 6.2.1
 _ZN16QModbusTcpServerD2Ev@Base 6.2.1
 _ZN17QCanBusDeviceInfoC1ER24QCanBusDeviceInfoPrivate@Base 6.2.1
 _ZN17QCanBusDeviceInfoC1ERKS_@Base 6.2.1
 _ZN17QCanBusDeviceInfoC2ER24QCanBusDeviceInfoPrivate@Base 6.2.1
 _ZN17QCanBusDeviceInfoC2ERKS_@Base 6.2.1
 _ZN17QCanBusDeviceInfoD1Ev@Base 6.2.1
 _ZN17QCanBusDeviceInfoD2Ev@Base 6.2.1
 _ZN17QCanBusDeviceInfoaSERKS_@Base 6.2.1
 _ZN22QModbusRtuSerialClient11qt_metacallEN11QMetaObject4CallEiPPv@Base 6.2.1
 _ZN22QModbusRtuSerialClient11qt_metacastEPKc@Base 6.2.1
 _ZN22QModbusRtuSerialClient16staticMetaObjectE@Base 6.2.1
 _ZN22QModbusRtuSerialClient18setInterFrameDelayEi@Base 6.2.1
 _ZN22QModbusRtuSerialClient18setTurnaroundDelayEi@Base 6.2.1
 _ZN22QModbusRtuSerialClient4openEv@Base 6.2.1
 _ZN22QModbusRtuSerialClient5closeEv@Base 6.2.1
 _ZN22QModbusRtuSerialClientC1EP7QObject@Base 6.2.1
 _ZN22QModbusRtuSerialClientC1ER29QModbusRtuSerialClientPrivateP7QObject@Base 6.2.1
 _ZN22QModbusRtuSerialClientC2EP7QObject@Base 6.2.1
 _ZN22QModbusRtuSerialClientC2ER29QModbusRtuSerialClientPrivateP7QObject@Base 6.2.1
 _ZN22QModbusRtuSerialClientD0Ev@Base 6.2.1
 _ZN22QModbusRtuSerialClientD1Ev@Base 6.2.1
 _ZN22QModbusRtuSerialClientD2Ev@Base 6.2.1
 _ZN22QModbusRtuSerialServer11qt_metacallEN11QMetaObject4CallEiPPv@Base 6.2.1
 _ZN22QModbusRtuSerialServer11qt_metacastEPKc@Base 6.2.1
 _ZN22QModbusRtuSerialServer14processRequestERK10QModbusPdu@Base 6.2.1
 _ZN22QModbusRtuSerialServer16staticMetaObjectE@Base 6.2.1
 _ZN22QModbusRtuSerialServer18setInterFrameDelayEi@Base 6.2.1
 _ZN22QModbusRtuSerialServer4openEv@Base 6.2.1
 _ZN22QModbusRtuSerialServer5closeEv@Base 6.2.1
 _ZN22QModbusRtuSerialServerC1EP7QObject@Base 6.2.1
 _ZN22QModbusRtuSerialServerC1ER29QModbusRtuSerialServerPrivateP7QObject@Base 6.2.1
 _ZN22QModbusRtuSerialServerC2EP7QObject@Base 6.2.1
 _ZN22QModbusRtuSerialServerC2ER29QModbusRtuSerialServerPrivateP7QObject@Base 6.2.1
 _ZN22QModbusRtuSerialServerD0Ev@Base 6.2.1
 _ZN22QModbusRtuSerialServerD1Ev@Base 6.2.1
 _ZN22QModbusRtuSerialServerD2Ev@Base 6.2.1
 _ZN27QModbusDeviceIdentification13fromByteArrayERK10QByteArray@Base 6.2.1
 _ZN28QModbusTcpConnectionObserverD0Ev@Base 6.2.1
 _ZN28QModbusTcpConnectionObserverD1Ev@Base 6.2.1
 _ZN28QModbusTcpConnectionObserverD2Ev@Base 6.2.1
 _ZN7QCanBus11qt_metacallEN11QMetaObject4CallEiPPv@Base 6.2.1
 _ZN7QCanBus11qt_metacastEPKc@Base 6.2.1
 _ZN7QCanBus16staticMetaObjectE@Base 6.2.1
 _ZN7QCanBus8instanceEv@Base 6.2.1
 _ZN7QCanBusC1EP7QObject@Base 6.2.1
 _ZN7QCanBusC2EP7QObject@Base 6.2.1
 _ZNK12QCanBusFrame8toStringEv@Base 6.2.1
 _ZNK12QModbusReply10isFinishedEv@Base 6.2.1
 _ZNK12QModbusReply10metaObjectEv@Base 6.2.1
 _ZNK12QModbusReply11errorStringEv@Base 6.2.1
 _ZNK12QModbusReply13serverAddressEv@Base 6.2.1
 _ZNK12QModbusReply18intermediateErrorsEv@Base 6.2.1
 _ZNK12QModbusReply4typeEv@Base 6.2.1
 _ZNK12QModbusReply5errorEv@Base 6.2.1
 _ZNK12QModbusReply6resultEv@Base 6.2.1
 _ZNK12QModbusReply9rawResultEv@Base 6.2.1
 _ZNK13QCanBusDevice10deviceInfoEv@Base 6.2.1
 _ZNK13QCanBusDevice10metaObjectEv@Base 6.2.1
 _ZNK13QCanBusDevice11errorStringEv@Base 6.2.1
 _ZNK13QCanBusDevice12hasBusStatusEv@Base 6.2.1
 _ZNK13QCanBusDevice13framesToWriteEv@Base 6.2.1
 _ZNK13QCanBusDevice15framesAvailableEv@Base 6.2.1
 _ZNK13QCanBusDevice17configurationKeysEv@Base 6.2.1
 _ZNK13QCanBusDevice17hasOutgoingFramesEv@Base 6.2.1
 _ZNK13QCanBusDevice22configurationParameterENS_16ConfigurationKeyE@Base 6.2.1
 _ZNK13QCanBusDevice5errorEv@Base 6.2.1
 _ZNK13QCanBusDevice5stateEv@Base 6.2.1
 _ZNK13QModbusClient10metaObjectEv@Base 6.2.1
 _ZNK13QModbusClient15numberOfRetriesEv@Base 6.2.1
 _ZNK13QModbusClient7timeoutEv@Base 6.2.1
 _ZNK13QModbusDevice10metaObjectEv@Base 6.2.1
 _ZNK13QModbusDevice11errorStringEv@Base 6.2.1
 _ZNK13QModbusDevice19connectionParameterENS_19ConnectionParameterE@Base 6.2.1
 _ZNK13QModbusDevice5errorEv@Base 6.2.1
 _ZNK13QModbusDevice5stateEv@Base 6.2.1
 _ZNK13QModbusDevice6deviceEv@Base 6.2.1
 _ZNK13QModbusServer10metaObjectEv@Base 6.2.1
 _ZNK13QModbusServer13serverAddressEv@Base 6.2.1
 _ZNK13QModbusServer4dataEN15QModbusDataUnit12RegisterTypeEtPt@Base 6.2.1
 _ZNK13QModbusServer4dataEP15QModbusDataUnit@Base 6.2.1
 _ZNK13QModbusServer5valueEi@Base 6.2.1
 _ZNK13QModbusServer8readDataEP15QModbusDataUnit@Base 6.2.1
 _ZNK16QModbusTcpClient10metaObjectEv@Base 6.2.1
 _ZNK16QModbusTcpServer10metaObjectEv@Base 6.2.1
 _ZNK17QCanBusDeviceInfo11descriptionEv@Base 6.2.1
 _ZNK17QCanBusDeviceInfo12serialNumberEv@Base 6.2.1
 _ZNK17QCanBusDeviceInfo19hasFlexibleDataRateEv@Base 6.2.1
 _ZNK17QCanBusDeviceInfo4nameEv@Base 6.2.1
 _ZNK17QCanBusDeviceInfo5aliasEv@Base 6.2.1
 _ZNK17QCanBusDeviceInfo6pluginEv@Base 6.2.1
 _ZNK17QCanBusDeviceInfo7channelEv@Base 6.2.1
 _ZNK17QCanBusDeviceInfo9isVirtualEv@Base 6.2.1
 _ZNK22QModbusRtuSerialClient10metaObjectEv@Base 6.2.1
 _ZNK22QModbusRtuSerialClient15interFrameDelayEv@Base 6.2.1
 _ZNK22QModbusRtuSerialClient15turnaroundDelayEv@Base 6.2.1
 _ZNK22QModbusRtuSerialServer10metaObjectEv@Base 6.2.1
 _ZNK22QModbusRtuSerialServer15interFrameDelayEv@Base 6.2.1
 _ZNK22QModbusRtuSerialServer18processesBroadcastEv@Base 6.2.1
 _ZNK7QCanBus10metaObjectEv@Base 6.2.1
 _ZNK7QCanBus12createDeviceERK7QStringS2_PS0_@Base 6.2.1
 _ZNK7QCanBus16availableDevicesERK7QStringPS0_@Base 6.2.1
 _ZNK7QCanBus7pluginsEv@Base 6.2.1
 (optional=templinst)_ZNSt8_Rb_treeIiSt4pairIKi10QByteArrayESt10_Select1stIS3_ESt4lessIiESaIS3_EE16_M_insert_uniqueIS3_EES0_ISt17_Rb_tree_iteratorIS3_EbEOT_@Base 6.2.1
 _ZTI12QModbusReply@Base 6.2.1
 _ZTI13QCanBusDevice@Base 6.2.1
 _ZTI13QModbusClient@Base 6.2.1
 _ZTI13QModbusDevice@Base 6.2.1
 _ZTI13QModbusServer@Base 6.2.1
 _ZTI14QCanBusFactory@Base 6.2.1
 _ZTI16QModbusTcpClient@Base 6.2.1
 _ZTI16QModbusTcpServer@Base 6.2.1
 _ZTI22QModbusRtuSerialClient@Base 6.2.1
 _ZTI22QModbusRtuSerialServer@Base 6.2.1
 _ZTI28QModbusTcpConnectionObserver@Base 6.2.1
 _ZTI7QCanBus@Base 6.2.1
 _ZTS12QModbusReply@Base 6.2.1
 _ZTS13QCanBusDevice@Base 6.2.1
 _ZTS13QModbusClient@Base 6.2.1
 _ZTS13QModbusDevice@Base 6.2.1
 _ZTS13QModbusServer@Base 6.2.1
 _ZTS14QCanBusFactory@Base 6.2.1
 _ZTS16QModbusTcpClient@Base 6.2.1
 _ZTS16QModbusTcpServer@Base 6.2.1
 _ZTS22QModbusRtuSerialClient@Base 6.2.1
 _ZTS22QModbusRtuSerialServer@Base 6.2.1
 _ZTS28QModbusTcpConnectionObserver@Base 6.2.1
 _ZTS7QCanBus@Base 6.2.1
 _ZTV12QModbusReply@Base 6.2.1
 _ZTV13QCanBusDevice@Base 6.2.1
 _ZTV13QModbusClient@Base 6.2.1
 _ZTV13QModbusDevice@Base 6.2.1
 _ZTV13QModbusServer@Base 6.2.1
 _ZTV14QCanBusFactory@Base 6.2.1
 _ZTV16QModbusTcpClient@Base 6.2.1
 _ZTV16QModbusTcpServer@Base 6.2.1
 _ZTV22QModbusRtuSerialClient@Base 6.2.1
 _ZTV22QModbusRtuSerialServer@Base 6.2.1
 _ZTV28QModbusTcpConnectionObserver@Base 6.2.1
 _ZTV7QCanBus@Base 6.2.1
 (optional=templinst)_ZZN9QtPrivate16QMetaTypeForTypeIhE10getCopyCtrEvENUlPKNS_18QMetaTypeInterfaceEPvPKvE_4_FUNES4_S5_S7_@Base 6.2.1
 (optional=templinst)_ZZN9QtPrivate16QMetaTypeForTypeIhE10getMoveCtrEvENUlPKNS_18QMetaTypeInterfaceEPvS5_E_4_FUNES4_S5_S5_@Base 6.2.1
 (optional=templinst)_ZZN9QtPrivate16QMetaTypeForTypeIhE13getDefaultCtrEvENUlPKNS_18QMetaTypeInterfaceEPvE_4_FUNES4_S5_@Base 6.2.1
 (optional=templinst)_ZZN9QtPrivate16QMetaTypeForTypeIiE10getCopyCtrEvENUlPKNS_18QMetaTypeInterfaceEPvPKvE_4_FUNES4_S5_S7_@Base 6.2.1
 (optional=templinst)_ZZN9QtPrivate16QMetaTypeForTypeIiE10getMoveCtrEvENUlPKNS_18QMetaTypeInterfaceEPvS5_E_4_FUNES4_S5_S5_@Base 6.2.1
 (optional=templinst)_ZZN9QtPrivate16QMetaTypeForTypeIiE13getDefaultCtrEvENUlPKNS_18QMetaTypeInterfaceEPvE_4_FUNES4_S5_@Base 6.2.1
 (optional=templinst)_ZZN9QtPrivate16QMetaTypeForTypeItE10getCopyCtrEvENUlPKNS_18QMetaTypeInterfaceEPvPKvE_4_FUNES4_S5_S7_@Base 6.2.1
 (optional=templinst)_ZZN9QtPrivate16QMetaTypeForTypeItE10getMoveCtrEvENUlPKNS_18QMetaTypeInterfaceEPvS5_E_4_FUNES4_S5_S5_@Base 6.2.1
 (optional=templinst)_ZZN9QtPrivate16QMetaTypeForTypeItE13getDefaultCtrEvENUlPKNS_18QMetaTypeInterfaceEPvE_4_FUNES4_S5_@Base 6.2.1
 (optional=templinst)_ZZN9QtPrivate16QMetaTypeForTypeIxE10getCopyCtrEvENUlPKNS_18QMetaTypeInterfaceEPvPKvE_4_FUNES4_S5_S7_@Base 6.2.1
 (optional=templinst)_ZZN9QtPrivate16QMetaTypeForTypeIxE10getMoveCtrEvENUlPKNS_18QMetaTypeInterfaceEPvS5_E_4_FUNES4_S5_S5_@Base 6.2.1
 (optional=templinst)_ZZN9QtPrivate16QMetaTypeForTypeIxE13getDefaultCtrEvENUlPKNS_18QMetaTypeInterfaceEPvE_4_FUNES4_S5_@Base 6.2.1
 _Zls6QDebugRK10QModbusPdu@Base 6.2.1
 _ZlsR11QDataStreamRK10QModbusPdu@Base 6.2.1
 _ZlsR11QDataStreamRK12QCanBusFrame@Base 6.2.1
 _ZrsR11QDataStreamR12QCanBusFrame@Base 6.2.1
 _ZrsR11QDataStreamR14QModbusRequest@Base 6.2.1
 _ZrsR11QDataStreamR15QModbusResponse@Base 6.2.1
